Certificate:
    Data:
        Version: 3 (0x2)
        Serial Number:
            a7:a7:98:97:d3:33:2f:cb:59:f0:15:c9:a3:ee:ba:49
        Signature Algorithm: sha256WithRSAEncryption
        Issuer: CN=OpenVPN-Server-CA
        Validity
            Not Before: Jan  2 22:22:45 2025 GMT
            Not After : Apr  7 22:22:45 2027 GMT
        Subject: CN=server
        Subject Public Key Info:
            Public Key Algorithm: rsaEncryption
                Public-Key: (2048 bit)
                Modulus:
                    00:b7:c8:57:4d:4b:c8:29:2c:e9:2d:63:1a:7d:5e:
                    f9:65:78:87:9a:cb:05:47:8d:59:ea:05:6b:03:b8:
                    c2:e3:81:af:cb:e4:e7:43:3c:08:e4:c8:2f:18:e3:
                    de:f9:72:3b:e7:49:f4:90:48:23:7a:37:52:89:d8:
                    85:f9:55:59:a2:2d:07:ff:e5:8b:fa:d0:74:24:99:
                    9a:79:91:f2:2f:d4:8e:e1:21:27:1c:c8:1b:dd:e0:
                    7c:55:ef:49:08:a0:fe:80:dd:8f:59:f1:30:48:f2:
                    a4:4b:22:8a:01:49:5e:73:bd:d8:b4:8e:97:01:69:
                    dd:c2:7d:51:93:85:6a:0f:81:30:98:8a:fa:56:ad:
                    90:bf:e2:71:4d:5f:d2:54:fc:46:86:c0:e1:5a:50:
                    b7:ca:d2:0f:46:48:c5:aa:19:76:ef:9b:4d:e3:67:
                    17:9d:97:97:d2:a3:ba:7d:a9:e1:ca:ff:2e:72:af:
                    02:60:f7:9b:76:21:0c:47:0e:ae:a1:f9:b9:d3:fb:
                    e5:03:9c:e1:32:77:74:57:c6:cf:80:b8:1e:8e:1f:
                    f4:e9:6f:f1:09:da:22:8d:f9:28:25:cf:ad:d7:7c:
                    8b:b3:86:88:ac:39:10:45:f0:e8:bb:1e:72:17:e8:
                    e4:d1:2c:04:fb:dc:9a:c4:59:9f:ad:86:52:cf:f6:
                    a7:99
                Exponent: 65537 (0x10001)
        X509v3 extensions:
            X509v3 Basic Constraints: 
                CA:FALSE
            X509v3 Subject Key Identifier: 
                EA:67:7E:22:FD:6E:37:11:11:67:1C:DA:AA:64:8E:EB:27:3F:0E:7D
            X509v3 Authority Key Identifier: 
                keyid:D0:57:B8:D7:3B:D0:CE:A5:48:90:45:AE:74:D9:D1:49:CA:8A:E1:08
                DirName:/CN=OpenVPN-Server-CA
                serial:3F:F3:8F:0B:EE:D1:DA:1A:03:EF:E2:2E:E3:A6:1E:FD:76:8E:74:6F
            X509v3 Extended Key Usage: 
                TLS Web Server Authentication
            X509v3 Key Usage: 
                Digital Signature, Key Encipherment
            X509v3 Subject Alternative Name: 
                DNS:server
    Signature Algorithm: sha256WithRSAEncryption
    Signature Value:
        a2:88:d9:78:7d:38:40:18:70:b7:58:ba:8b:71:5a:01:7a:6f:
        a8:5c:fa:2b:a6:7d:dc:e4:9f:4c:47:81:ac:eb:d7:ee:30:ed:
        9d:07:65:97:4e:98:f1:39:08:fa:c2:27:b1:53:88:65:97:1b:
        25:f9:f8:ee:8e:54:a6:0f:42:13:a6:d0:10:61:77:ab:be:e6:
        3e:27:63:c9:c7:0b:71:e7:59:a5:8a:0d:c5:27:1f:dc:1c:86:
        78:89:1f:53:09:df:81:8a:cb:73:f0:36:ac:28:a8:66:a4:6b:
        6f:c3:8c:83:af:91:24:62:cf:5b:6b:9a:94:f6:6b:73:33:96:
        64:ee:11:51:c6:5b:cb:e5:95:2b:62:30:b1:95:a4:86:41:52:
        c1:7d:22:b1:c3:c5:62:ed:55:4a:a4:4a:83:9d:93:81:26:63:
        fd:a3:68:9a:45:da:49:c7:4d:c5:a5:ca:2c:cb:1f:e3:d3:d6:
        75:aa:33:6d:0d:26:3b:48:81:b9:11:f8:54:5e:d6:d4:76:65:
        d3:c9:41:c2:72:0c:b9:87:9d:0b:97:9c:e6:20:90:f5:c8:a5:
        3a:32:e8:cd:cf:07:cd:93:20:54:60:6b:8e:ef:88:96:51:30:
        c8:9b:86:54:22:6e:c0:3c:4d:32:40:be:08:e8:07:52:74:e0:
        c9:18:be:8a
-----BEGIN CERTIFICATE-----
MIIDdDCCAlygAwIBAgIRAKenmJfTMy/LWfAVyaPuukkwDQYJKoZIhvcNAQELBQAw
HDEaMBgGA1UEAwwRT3BlblZQTi1TZXJ2ZXItQ0EwHhcNMjUwMTAyMjIyMjQ1WhcN
MjcwNDA3MjIyMjQ1WjARMQ8wDQYDVQQDDAZzZXJ2ZXIwggEiMA0GCSqGSIb3DQEB
AQUAA4IBDwAwggEKAoIBAQC3yFdNS8gpLOktYxp9XvlleIeaywVHjVnqBWsDuMLj
ga/L5OdDPAjkyC8Y4975cjvnSfSQSCN6N1KJ2IX5VVmiLQf/5Yv60HQkmZp5kfIv
1I7hISccyBvd4HxV70kIoP6A3Y9Z8TBI8qRLIooBSV5zvdi0jpcBad3CfVGThWoP
gTCYivpWrZC/4nFNX9JU/EaGwOFaULfK0g9GSMWqGXbvm03jZxedl5fSo7p9qeHK
/y5yrwJg95t2IQxHDq6h+bnT++UDnOEyd3RXxs+AuB6OH/Tpb/EJ2iKN+Sglz63X
fIuzhoisORBF8Oi7HnIX6OTRLAT73JrEWZ+thlLP9qeZAgMBAAGjgbswgbgwCQYD
VR0TBAIwADAdBgNVHQ4EFgQU6md+Iv1uNxERZxzaqmSO6yc/Dn0wVwYDVR0jBFAw
ToAU0Fe41zvQzqVIkEWudNnRScqK4QihIKQeMBwxGjAYBgNVBAMMEU9wZW5WUE4t
U2VydmVyLUNBghQ/848L7tHaGgPv4i7jph79do50bzATBgNVHSUEDDAKBggrBgEF
BQcDATALBgNVHQ8EBAMCBaAwEQYDVR0RBAowCIIGc2VydmVyMA0GCSqGSIb3DQEB
CwUAA4IBAQCiiNl4fThAGHC3WLqLcVoBem+oXPorpn3c5J9MR4Gs69fuMO2dB2WX
TpjxOQj6wiexU4hllxsl+fjujlSmD0ITptAQYXervuY+J2PJxwtx51mlig3FJx/c
HIZ4iR9TCd+Bistz8DasKKhmpGtvw4yDr5EkYs9ba5qU9mtzM5Zk7hFRxlvL5ZUr
YjCxlaSGQVLBfSKxw8Vi7VVKpEqDnZOBJmP9o2iaRdpJx03Fpcosyx/j09Z1qjNt
DSY7SIG5EfhUXtbUdmXTyUHCcgy5h50Ll5zmIJD1yKU6MujNzwfNkyBUYGuO74iW
UTDIm4ZUIm7APE0yQL4I6AdSdODJGL6K
-----END CERTIFICATE-----
